; Function Attrs: mustprogress nofree norecurse nosync nounwind memory(argmem: readwrite, inaccessiblemem: readwrite) uwtable
define hidden noundef zeroext i1 @_ZN3ue27matchesEN9__gnu_cxx17__normal_iteratorIPKNS_9CharReachESt6vectorIS2_SaIS2_EEEES8_S8_S8_(ptr readonly %0, ptr readnone %1, ptr readonly captures(none) %2, ptr readnone captures(none) %3) local_unnamed_addr #6 {
  %5 = alloca %"class.ue2::CharReach", align 8
  %.not6 = icmp eq ptr %0, %1
  br i1 %.not6, label %._crit_edge, label %.lr.ph

.lr.ph:                                           ; preds = %4
  %6 = getelementptr inbounds nuw i8, ptr %5, i64 8
  %7 = getelementptr inbounds nuw i8, ptr %5, i64 16
  %8 = getelementptr inbounds nuw i8, ptr %5, i64 24
  br label %9

9:                                                ; preds = %_ZNK3ue29CharReach4noneEv.exit, %.lr.ph
  %.sroa.0.08 = phi ptr [ %2, %.lr.ph ], [ %28, %_ZNK3ue29CharReach4noneEv.exit ]
  %.sroa.03.07 = phi ptr [ %0, %.lr.ph ], [ %27, %_ZNK3ue29CharReach4noneEv.exit ]
  call void @llvm.lifetime.start.p0(i64 32, ptr nonnull %5) #16
  tail call void @llvm.experimental.noalias.scope.decl(metadata !9)
  call void @llvm.memcpy.p0.p0.i64(ptr noundef nonnull align 8 dereferenceable(32) %5, ptr noundef nonnull align 8 dereferenceable(32) %.sroa.03.07, i64 32, i1 false)
  %10 = load i64, ptr %.sroa.0.08, align 8, !noalias !9
  %11 = load i64, ptr %5, align 8, !alias.scope !9
  %12 = and i64 %11, %10
  store i64 %12, ptr %5, align 8, !alias.scope !9
  %13 = getelementptr inbounds nuw i8, ptr %.sroa.0.08, i64 8
  %14 = load i64, ptr %13, align 8, !noalias !9
  %15 = load i64, ptr %6, align 8, !alias.scope !9
  %16 = and i64 %15, %14
  store i64 %16, ptr %6, align 8, !alias.scope !9
  %17 = getelementptr inbounds nuw i8, ptr %.sroa.0.08, i64 16
  %18 = load i64, ptr %17, align 8, !noalias !9
  %19 = load i64, ptr %7, align 8, !alias.scope !9
  %20 = and i64 %19, %18
  store i64 %20, ptr %7, align 8, !alias.scope !9
  %21 = getelementptr inbounds nuw i8, ptr %.sroa.0.08, i64 24
  %22 = load i64, ptr %21, align 8, !noalias !9
  %23 = load i64, ptr %8, align 8, !alias.scope !9
  %24 = and i64 %23, %22
  store i64 %24, ptr %8, align 8, !alias.scope !9
  br label %25

25:                                               ; preds = %25, %9
  %.012.idx14.i.i = phi i64 [ 0, %9 ], [ %.012.add.i.i, %25 ]
  %.012.ptr.i.i = getelementptr inbounds nuw i8, ptr %5, i64 %.012.idx14.i.i
  %26 = load i64, ptr %.012.ptr.i.i, align 8
  %.not13.i.i = icmp eq i64 %26, 0
  %.012.add.i.i = add nuw nsw i64 %.012.idx14.i.i, 8
  %.not.i.i = icmp ne i64 %.012.add.i.i, 32
  %or.cond.not.i.i = select i1 %.not13.i.i, i1 %.not.i.i, i1 false
  br i1 %or.cond.not.i.i, label %25, label %_ZNK3ue29CharReach4noneEv.exit

_ZNK3ue29CharReach4noneEv.exit:                   ; preds = %25
  call void @llvm.lifetime.end.p0(i64 32, ptr nonnull %5) #16
  %27 = getelementptr inbounds nuw i8, ptr %.sroa.03.07, i64 32
  %28 = getelementptr inbounds nuw i8, ptr %.sroa.0.08, i64 32
  %.not = icmp eq ptr %27, %1
  %or.cond = select i1 %.not13.i.i, i1 true, i1 %.not
  br i1 %or.cond, label %._crit_edge.loopexit, label %9, !llvm.loop !12

._crit_edge.loopexit:                             ; preds = %_ZNK3ue29CharReach4noneEv.exit
  %.not.lcssa.ph = xor i1 %.not13.i.i, true
  br label %._crit_edge

._crit_edge:                                      ; preds = %._crit_edge.loopexit, %4
  %.not.lcssa = phi i1 [ true, %4 ], [ %.not.lcssa.ph, %._crit_edge.loopexit ]
  ret i1 %.not.lcssa
}